target datalayout = "e-m:e-p270:32:32-p271:32:32-p272:64:64-i64:64-i128:128-f80:128-n8:16:32:64-S128"
target triple = "x86_64-pc-linux-gnu"

%struct.dirent = type { i64, i64, i16, i8, [256 x i8] }

@.str.31 = private unnamed_addr constant [14 x i8] c"/proc/self/fd\00", align 1
@.str.32 = private unnamed_addr constant [45 x i8] c"posix_spawn_file_actions_addclose failed: %s\00", align 1

; Function Attrs: nounwind uwtable
define internal zeroext i1 @AddFileDescriptorCloseActions(ptr noundef %0) #0 {
  %2 = alloca i1, align 1
  %3 = alloca ptr, align 8
  %4 = alloca ptr, align 8
  %5 = alloca ptr, align 8
  %6 = alloca i32, align 4
  %7 = alloca i32, align 4
  %8 = alloca i32, align 4
  %9 = alloca i32, align 4
  %10 = alloca i32, align 4
  store ptr %0, ptr %3, align 8
  call void @llvm.lifetime.start.p0(i64 8, ptr %4) #9
  %11 = call noalias ptr @opendir(ptr noundef @.str.31)
  store ptr %11, ptr %4, align 8
  %12 = load ptr, ptr %4, align 8
  %13 = icmp ne ptr %12, null
  br i1 %13, label %14, label %60

14:                                               ; preds = %1
  call void @llvm.lifetime.start.p0(i64 8, ptr %5) #9
  br label %15

15:                                               ; preds = %53, %51, %14
  %16 = load ptr, ptr %4, align 8
  %17 = call ptr @readdir(ptr noundef %16)
  store ptr %17, ptr %5, align 8
  %18 = icmp ne ptr %17, null
  br i1 %18, label %19, label %54

19:                                               ; preds = %15
  call void @llvm.lifetime.start.p0(i64 4, ptr %6) #9
  %20 = load ptr, ptr %5, align 8
  %21 = getelementptr inbounds nuw %struct.dirent, ptr %20, i32 0, i32 4
  %22 = getelementptr inbounds [256 x i8], ptr %21, i64 0, i64 0
  %23 = call i32 @SDL_atoi_REAL(ptr noundef %22)
  store i32 %23, ptr %6, align 4
  %24 = load i32, ptr %6, align 4
  %25 = icmp sle i32 %24, 2
  br i1 %25, label %26, label %27

26:                                               ; preds = %19
  store i32 2, ptr %7, align 4
  br label %51, !llvm.loop !5

27:                                               ; preds = %19
  call void @llvm.lifetime.start.p0(i64 4, ptr %8) #9
  %28 = load i32, ptr %6, align 4
  %29 = call i32 (i32, i32, ...) @fcntl(i32 noundef %28, i32 noundef 1)
  store i32 %29, ptr %8, align 4
  %30 = load i32, ptr %8, align 4
  %31 = icmp slt i32 %30, 0
  br i1 %31, label %36, label %32

32:                                               ; preds = %27
  %33 = load i32, ptr %8, align 4
  %34 = and i32 %33, 1
  %35 = icmp ne i32 %34, 0
  br i1 %35, label %36, label %37

36:                                               ; preds = %32, %27
  store i32 2, ptr %7, align 4
  br label %50, !llvm.loop !5

37:                                               ; preds = %32
  %38 = load ptr, ptr %3, align 8
  %39 = load i32, ptr %6, align 4
  %40 = call i32 @posix_spawn_file_actions_addclose(ptr noundef %38, i32 noundef %39) #9
  %41 = icmp ne i32 %40, 0
  br i1 %41, label %42, label %49

42:                                               ; preds = %37
  %43 = load ptr, ptr %4, align 8
  %44 = call i32 @closedir(ptr noundef %43)
  %45 = call ptr @__errno_location() #11
  %46 = load i32, ptr %45, align 4
  %47 = call ptr @strerror(i32 noundef %46) #9
  %48 = call zeroext i1 (ptr, ...) @SDL_SetError_REAL(ptr noundef @.str.32, ptr noundef %47)
  store i1 %48, ptr %2, align 1
  store i32 1, ptr %7, align 4
  br label %50

49:                                               ; preds = %37
  store i32 0, ptr %7, align 4
  br label %50

50:                                               ; preds = %49, %42, %36
  call void @llvm.lifetime.end.p0(i64 4, ptr %8) #9
  br label %51

51:                                               ; preds = %50, %26
  call void @llvm.lifetime.end.p0(i64 4, ptr %6) #9
  %52 = load i32, ptr %7, align 4
  switch i32 %52, label %57 [
    i32 0, label %53
    i32 2, label %15
  ]

53:                                               ; preds = %51
  br label %15, !llvm.loop !5

54:                                               ; preds = %15
  %55 = load ptr, ptr %4, align 8
  %56 = call i32 @closedir(ptr noundef %55)
  store i32 0, ptr %7, align 4
  br label %57

57:                                               ; preds = %54, %51
  call void @llvm.lifetime.end.p0(i64 8, ptr %5) #9
  %58 = load i32, ptr %7, align 4
  switch i32 %58, label %99 [
    i32 0, label %59
  ]

59:                                               ; preds = %57
  br label %98

60:                                               ; preds = %1
  call void @llvm.lifetime.start.p0(i64 4, ptr %9) #9
  %61 = call i64 @sysconf(i32 noundef 4) #9
  %62 = sub nsw i64 %61, 1
  %63 = trunc i64 %62 to i32
  store i32 %63, ptr %9, align 4
  br label %64

64:                                               ; preds = %92, %60
  %65 = load i32, ptr %9, align 4
  %66 = icmp sgt i32 %65, 2
  br i1 %66, label %68, label %67

67:                                               ; preds = %64
  store i32 4, ptr %7, align 4
  br label %95

68:                                               ; preds = %64
  call void @llvm.lifetime.start.p0(i64 4, ptr %10) #9
  %69 = load i32, ptr %9, align 4
  %70 = call i32 (i32, i32, ...) @fcntl(i32 noundef %69, i32 noundef 1)
  store i32 %70, ptr %10, align 4
  %71 = load i32, ptr %10, align 4
  %72 = icmp slt i32 %71, 0
  br i1 %72, label %77, label %73

73:                                               ; preds = %68
  %74 = load i32, ptr %10, align 4
  %75 = and i32 %74, 1
  %76 = icmp ne i32 %75, 0
  br i1 %76, label %77, label %78

77:                                               ; preds = %73, %68
  store i32 6, ptr %7, align 4
  br label %89

78:                                               ; preds = %73
  %79 = load ptr, ptr %3, align 8
  %80 = load i32, ptr %9, align 4
  %81 = call i32 @posix_spawn_file_actions_addclose(ptr noundef %79, i32 noundef %80) #9
  %82 = icmp ne i32 %81, 0
  br i1 %82, label %83, label %88

83:                                               ; preds = %78
  %84 = call ptr @__errno_location() #11
  %85 = load i32, ptr %84, align 4
  %86 = call ptr @strerror(i32 noundef %85) #9
  %87 = call zeroext i1 (ptr, ...) @SDL_SetError_REAL(ptr noundef @.str.32, ptr noundef %86)
  store i1 %87, ptr %2, align 1
  store i32 1, ptr %7, align 4
  br label %89

88:                                               ; preds = %78
  store i32 0, ptr %7, align 4
  br label %89

89:                                               ; preds = %88, %83, %77
  call void @llvm.lifetime.end.p0(i64 4, ptr %10) #9
  %90 = load i32, ptr %7, align 4
  switch i32 %90, label %95 [
    i32 0, label %91
    i32 6, label %92
  ]

91:                                               ; preds = %89
  br label %92

92:                                               ; preds = %91, %89
  %93 = load i32, ptr %9, align 4
  %94 = add nsw i32 %93, -1
  store i32 %94, ptr %9, align 4
  br label %64, !llvm.loop !7

95:                                               ; preds = %89, %67
  call void @llvm.lifetime.end.p0(i64 4, ptr %9) #9
  %96 = load i32, ptr %7, align 4
  switch i32 %96, label %99 [
    i32 4, label %97
  ]

97:                                               ; preds = %95
  br label %98

98:                                               ; preds = %97, %59
  store i1 true, ptr %2, align 1
  store i32 1, ptr %7, align 4
  br label %99

99:                                               ; preds = %98, %95, %57
  call void @llvm.lifetime.end.p0(i64 8, ptr %4) #9
  %100 = load i1, ptr %2, align 1
  ret i1 %100
}