; Function Attrs: nounwind uwtable
define internal fastcc zeroext i1 @AddFileDescriptorCloseActions(ptr noundef nonnull %0) unnamed_addr #0 {
  %2 = tail call noalias ptr @opendir(ptr noundef nonnull @.str.31)
  %.not = icmp eq ptr %2, null
  br i1 %.not, label %22, label %.preheader

.preheader:                                       ; preds = %1
  %3 = tail call ptr @readdir(ptr noundef nonnull %2) #10
  %.not3652 = icmp eq ptr %3, null
  br i1 %.not3652, label %.thread42, label %.lr.ph

.lr.ph:                                           ; preds = %.preheader, %13
  %4 = phi ptr [ %14, %13 ], [ %3, %.preheader ]
  %5 = getelementptr inbounds nuw i8, ptr %4, i64 19
  %6 = tail call i32 @SDL_atoi_REAL(ptr noundef nonnull %5) #10
  %7 = icmp slt i32 %6, 3
  br i1 %7, label %13, label %8, !llvm.loop !5

8:                                                ; preds = %.lr.ph
  %9 = tail call i32 (i32, i32, ...) @fcntl(i32 noundef %6, i32 noundef 1) #10
  %10 = and i32 %9, -2147483647
  %or.cond = icmp eq i32 %10, 0
  br i1 %or.cond, label %11, label %13, !llvm.loop !5

11:                                               ; preds = %8
  %12 = tail call i32 @posix_spawn_file_actions_addclose(ptr noundef nonnull %0, i32 noundef %6) #10
  %.not38 = icmp eq i32 %12, 0
  br i1 %.not38, label %13, label %16

13:                                               ; preds = %8, %11, %.lr.ph
  %14 = tail call ptr @readdir(ptr noundef nonnull %2) #10
  %.not36 = icmp eq ptr %14, null
  br i1 %.not36, label %.thread42, label %.lr.ph

.thread42:                                        ; preds = %13, %.preheader
  %15 = tail call i32 @closedir(ptr noundef nonnull %2)
  br label %.thread50

16:                                               ; preds = %11
  %17 = tail call i32 @closedir(ptr noundef nonnull %2)
  %18 = tail call ptr @__errno_location() #12
  %19 = load i32, ptr %18, align 4
  %20 = tail call ptr @strerror(i32 noundef %19) #10
  %21 = tail call zeroext i1 (ptr, ...) @SDL_SetError_REAL(ptr noundef nonnull @.str.32, ptr noundef %20) #10
  br label %.thread50

22:                                               ; preds = %1
  %23 = tail call i64 @sysconf(i32 noundef 4) #10
  %24 = trunc i64 %23 to i32
  %.02353 = add i32 %24, -1
  %25 = icmp slt i32 %.02353, 3
  br i1 %25, label %.thread50, label %.lr.ph55

.lr.ph55:                                         ; preds = %22, %30
  %.02354 = phi i32 [ %.023, %30 ], [ %.02353, %22 ]
  %26 = tail call i32 (i32, i32, ...) @fcntl(i32 noundef %.02354, i32 noundef 1) #10
  %27 = and i32 %26, -2147483647
  %or.cond39 = icmp eq i32 %27, 0
  br i1 %or.cond39, label %28, label %30

28:                                               ; preds = %.lr.ph55
  %29 = tail call i32 @posix_spawn_file_actions_addclose(ptr noundef nonnull %0, i32 noundef %.02354) #10
  %.not35 = icmp eq i32 %29, 0
  br i1 %.not35, label %30, label %32

30:                                               ; preds = %.lr.ph55, %28
  %.023 = add nsw i32 %.02354, -1
  %31 = icmp slt i32 %.02354, 4
  br i1 %31, label %.thread50, label %.lr.ph55, !llvm.loop !7

32:                                               ; preds = %28
  %33 = tail call ptr @__errno_location() #12
  %34 = load i32, ptr %33, align 4
  %35 = tail call ptr @strerror(i32 noundef %34) #10
  %36 = tail call zeroext i1 (ptr, ...) @SDL_SetError_REAL(ptr noundef nonnull @.str.32, ptr noundef %35) #10
  br label %.thread50

.thread50:                                        ; preds = %30, %22, %.thread42, %32, %16
  %.4 = phi i1 [ %21, %16 ], [ %36, %32 ], [ true, %.thread42 ], [ true, %22 ], [ true, %30 ]
  ret i1 %.4
}